; Function Attrs: nounwind uwtable
define hidden void @_PyWeakref_ClearWeakRefsNoCallbacks(ptr noundef readonly captures(none) %0) local_unnamed_addr #0 {
  %2 = getelementptr i8, ptr %0, i64 8
  %.val.i = load ptr, ptr %2, align 8, !tbaa !4
  %3 = getelementptr inbounds nuw i8, ptr %.val.i, i64 208
  %4 = load i64, ptr %3, align 8, !tbaa !10
  %5 = getelementptr i8, ptr %0, i64 %4
  %6 = load ptr, ptr %5, align 8, !tbaa !33
  %.not3 = icmp eq ptr %6, null
  br i1 %.not3, label %._crit_edge, label %.lr.ph

.lr.ph:                                           ; preds = %1
  %7 = tail call align 8 ptr @llvm.threadlocal.address.p0(ptr align 8 @_Py_tss_tstate)
  br label %8

8:                                                ; preds = %.lr.ph, %_PyWeakref_ClearRef.exit
  %9 = phi ptr [ %6, %.lr.ph ], [ %42, %_PyWeakref_ClearRef.exit ]
  %10 = getelementptr inbounds nuw i8, ptr %9, i64 16
  %11 = load ptr, ptr %10, align 8, !tbaa !37
  %.not.i.i = icmp eq ptr %11, @_Py_NoneStruct
  br i1 %.not.i.i, label %_PyWeakref_ClearRef.exit, label %12

12:                                               ; preds = %8
  %13 = getelementptr i8, ptr %11, i64 8
  %.val9.i.i.i = load ptr, ptr %13, align 8, !tbaa !4
  %14 = getelementptr i8, ptr %.val9.i.i.i, i64 168
  %.val9.val.i.i.i = load i64, ptr %14, align 8, !tbaa !21
  %15 = and i64 %.val9.val.i.i.i, 2147483648
  %.not10.i.i.i = icmp eq i64 %15, 0
  br i1 %.not10.i.i.i, label %26, label %16

16:                                               ; preds = %12
  %17 = getelementptr inbounds nuw i8, ptr %11, i64 168
  %18 = load i64, ptr %17, align 8, !tbaa !21
  %19 = and i64 %18, 2
  %.not8.i.i.i = icmp eq i64 %19, 0
  br i1 %.not8.i.i.i, label %26, label %20

20:                                               ; preds = %16
  %21 = load ptr, ptr %7, align 8, !tbaa !22
  %22 = getelementptr inbounds nuw i8, ptr %21, i64 16
  %23 = load ptr, ptr %22, align 8, !tbaa !24
  %24 = tail call ptr @_PyStaticType_GetState(ptr noundef %23, ptr noundef nonnull %11) #6
  %25 = getelementptr inbounds nuw i8, ptr %24, i64 40
  br label %_PyObject_GET_WEAKREFS_LISTPTR.exit.i.i

26:                                               ; preds = %16, %12
  %27 = getelementptr inbounds nuw i8, ptr %.val9.i.i.i, i64 208
  %28 = load i64, ptr %27, align 8, !tbaa !10
  %29 = getelementptr i8, ptr %11, i64 %28
  br label %_PyObject_GET_WEAKREFS_LISTPTR.exit.i.i

_PyObject_GET_WEAKREFS_LISTPTR.exit.i.i:          ; preds = %26, %20
  %.0.i.i.i = phi ptr [ %25, %20 ], [ %29, %26 ]
  %30 = load ptr, ptr %.0.i.i.i, align 8, !tbaa !33
  %31 = icmp eq ptr %30, %9
  %32 = getelementptr inbounds nuw i8, ptr %9, i64 48
  %33 = load ptr, ptr %32, align 8, !tbaa !39
  br i1 %31, label %34, label %_PyObject_GET_WEAKREFS_LISTPTR.exit.i._crit_edge.i

34:                                               ; preds = %_PyObject_GET_WEAKREFS_LISTPTR.exit.i.i
  store ptr %33, ptr %.0.i.i.i, align 8, !tbaa !33
  br label %_PyObject_GET_WEAKREFS_LISTPTR.exit.i._crit_edge.i

_PyObject_GET_WEAKREFS_LISTPTR.exit.i._crit_edge.i: ; preds = %34, %_PyObject_GET_WEAKREFS_LISTPTR.exit.i.i
  store ptr @_Py_NoneStruct, ptr %10, align 8, !tbaa !37
  %35 = getelementptr inbounds nuw i8, ptr %9, i64 40
  %36 = load ptr, ptr %35, align 8, !tbaa !40
  %.not23.i.i = icmp eq ptr %36, null
  br i1 %.not23.i.i, label %._crit_edge.i.i, label %37

37:                                               ; preds = %_PyObject_GET_WEAKREFS_LISTPTR.exit.i._crit_edge.i
  %38 = getelementptr inbounds nuw i8, ptr %36, i64 48
  store ptr %33, ptr %38, align 8, !tbaa !39
  br label %._crit_edge.i.i

._crit_edge.i.i:                                  ; preds = %37, %_PyObject_GET_WEAKREFS_LISTPTR.exit.i._crit_edge.i
  %.not24.i.i = icmp eq ptr %33, null
  br i1 %.not24.i.i, label %41, label %39

39:                                               ; preds = %._crit_edge.i.i
  %40 = getelementptr inbounds nuw i8, ptr %33, i64 40
  store ptr %36, ptr %40, align 8, !tbaa !40
  br label %41

41:                                               ; preds = %39, %._crit_edge.i.i
  tail call void @llvm.memset.p0.i64(ptr noundef nonnull align 8 dereferenceable(16) %35, i8 0, i64 16, i1 false)
  %.pre = load ptr, ptr %5, align 8, !tbaa !33
  br label %_PyWeakref_ClearRef.exit

_PyWeakref_ClearRef.exit:                         ; preds = %8, %41
  %42 = phi ptr [ %9, %8 ], [ %.pre, %41 ]
  %.not = icmp eq ptr %42, null
  br i1 %.not, label %._crit_edge, label %8, !llvm.loop !49

._crit_edge:                                      ; preds = %_PyWeakref_ClearRef.exit, %1
  ret void
}